target datalayout = "e-m:e-p270:32:32-p271:32:32-p272:64:64-i64:64-i128:128-f80:128-n8:16:32:64-S128"
target triple = "x86_64-pc-linux-gnu"

; Function Attrs: nounwind uwtable
define internal i32 @clamp(i32 noundef %0, i32 noundef %1, i32 noundef %2) #0 {
  %4 = alloca i32, align 4
  %5 = alloca i32, align 4
  %6 = alloca i32, align 4
  store i32 %0, ptr %4, align 4
  store i32 %1, ptr %5, align 4
  store i32 %2, ptr %6, align 4
  %7 = load i32, ptr %4, align 4
  %8 = load i32, ptr %5, align 4
  %9 = icmp slt i32 %7, %8
  br i1 %9, label %10, label %12

10:                                               ; preds = %3
  %11 = load i32, ptr %5, align 4
  br label %22

12:                                               ; preds = %3
  %13 = load i32, ptr %4, align 4
  %14 = load i32, ptr %6, align 4
  %15 = icmp sgt i32 %13, %14
  br i1 %15, label %16, label %18

16:                                               ; preds = %12
  %17 = load i32, ptr %6, align 4
  br label %20

18:                                               ; preds = %12
  %19 = load i32, ptr %4, align 4
  br label %20

20:                                               ; preds = %18, %16
  %21 = phi i32 [ %17, %16 ], [ %19, %18 ]
  br label %22

22:                                               ; preds = %20, %10
  %23 = phi i32 [ %11, %10 ], [ %21, %20 ]
  ret i32 %23
}

; Function Attrs: nounwind uwtable
define internal zeroext i16 @clip_pixel_highbd(i32 noundef %0, i32 noundef %1) #0 {
  %3 = alloca i16, align 2
  %4 = alloca i32, align 4
  %5 = alloca i32, align 4
  store i32 %0, ptr %4, align 4
  store i32 %1, ptr %5, align 4
  %6 = load i32, ptr %5, align 4
  switch i32 %6, label %8 [
    i32 8, label %7
    i32 10, label %12
    i32 12, label %16
  ]

7:                                                ; preds = %2
  br label %8

8:                                                ; preds = %7, %2
  %9 = load i32, ptr %4, align 4
  %10 = call i32 @clamp(i32 noundef %9, i32 noundef 0, i32 noundef 255)
  %11 = trunc i32 %10 to i16
  store i16 %11, ptr %3, align 2
  br label %20

12:                                               ; preds = %2
  %13 = load i32, ptr %4, align 4
  %14 = call i32 @clamp(i32 noundef %13, i32 noundef 0, i32 noundef 1023)
  %15 = trunc i32 %14 to i16
  store i16 %15, ptr %3, align 2
  br label %20

16:                                               ; preds = %2
  %17 = load i32, ptr %4, align 4
  %18 = call i32 @clamp(i32 noundef %17, i32 noundef 0, i32 noundef 4095)
  %19 = trunc i32 %18 to i16
  store i16 %19, ptr %3, align 2
  br label %20

20:                                               ; preds = %16, %12, %8
  %21 = load i16, ptr %3, align 2
  ret i16 %21
}

; Function Attrs: nounwind uwtable
define internal zeroext i16 @highbd_clip_pixel_add(i16 noundef zeroext %0, i64 noundef %1, i32 noundef %2) #0 {
  %4 = alloca i16, align 2
  %5 = alloca i64, align 8
  %6 = alloca i32, align 4
  store i16 %0, ptr %4, align 2
  store i64 %1, ptr %5, align 8
  store i32 %2, ptr %6, align 4
  %7 = load i16, ptr %4, align 2
  %8 = zext i16 %7 to i32
  %9 = load i64, ptr %5, align 8
  %10 = trunc i64 %9 to i32
  %11 = add nsw i32 %8, %10
  %12 = load i32, ptr %6, align 4
  %13 = call zeroext i16 @clip_pixel_highbd(i32 noundef %11, i32 noundef %12)
  ret i16 %13
}

; Function Attrs: nounwind uwtable
define hidden void @av1_highbd_iwht4x4_1_add_c(ptr noundef %0, ptr noundef %1, i32 noundef %2, i32 noundef %3) #0 {
  %5 = alloca ptr, align 8
  %6 = alloca ptr, align 8
  %7 = alloca i32, align 4
  %8 = alloca i32, align 4
  %9 = alloca i32, align 4
  %10 = alloca i32, align 4
  %11 = alloca i32, align 4
  %12 = alloca [4 x i32], align 16
  %13 = alloca ptr, align 8
  %14 = alloca ptr, align 8
  %15 = alloca ptr, align 8
  store ptr %0, ptr %5, align 8
  store ptr %1, ptr %6, align 8
  store i32 %2, ptr %7, align 4
  store i32 %3, ptr %8, align 4
  %16 = load ptr, ptr %5, align 8
  store ptr %16, ptr %13, align 8
  %17 = getelementptr inbounds [4 x i32], ptr %12, i64 0, i64 0
  store ptr %17, ptr %14, align 8
  %18 = load ptr, ptr %6, align 8
  %19 = ptrtoint ptr %18 to i64
  %20 = shl i64 %19, 1
  %21 = inttoptr i64 %20 to ptr
  store ptr %21, ptr %15, align 8
  %22 = load ptr, ptr %13, align 8
  %23 = getelementptr inbounds i32, ptr %22, i64 0
  %24 = load i32, ptr %23, align 4
  %25 = ashr i32 %24, 2
  store i32 %25, ptr %10, align 4
  %26 = load i32, ptr %10, align 4
  %27 = ashr i32 %26, 1
  store i32 %27, ptr %11, align 4
  %28 = load i32, ptr %11, align 4
  %29 = load i32, ptr %10, align 4
  %30 = sub nsw i32 %29, %28
  store i32 %30, ptr %10, align 4
  %31 = load i32, ptr %10, align 4
  %32 = load ptr, ptr %14, align 8
  %33 = getelementptr inbounds i32, ptr %32, i64 0
  store i32 %31, ptr %33, align 4
  %34 = load i32, ptr %11, align 4
  %35 = load ptr, ptr %14, align 8
  %36 = getelementptr inbounds i32, ptr %35, i64 3
  store i32 %34, ptr %36, align 4
  %37 = load ptr, ptr %14, align 8
  %38 = getelementptr inbounds i32, ptr %37, i64 2
  store i32 %34, ptr %38, align 4
  %39 = load ptr, ptr %14, align 8
  %40 = getelementptr inbounds i32, ptr %39, i64 1
  store i32 %34, ptr %40, align 4
  %41 = getelementptr inbounds [4 x i32], ptr %12, i64 0, i64 0
  store ptr %41, ptr %13, align 8
  store i32 0, ptr %9, align 4
  br label %42

42:                                               ; preds = %119, %4
  %43 = load i32, ptr %9, align 4
  %44 = icmp slt i32 %43, 4
  br i1 %44, label %45, label %122

45:                                               ; preds = %42
  %46 = load ptr, ptr %13, align 8
  %47 = getelementptr inbounds i32, ptr %46, i64 0
  %48 = load i32, ptr %47, align 4
  %49 = ashr i32 %48, 1
  store i32 %49, ptr %11, align 4
  %50 = load ptr, ptr %13, align 8
  %51 = getelementptr inbounds i32, ptr %50, i64 0
  %52 = load i32, ptr %51, align 4
  %53 = load i32, ptr %11, align 4
  %54 = sub nsw i32 %52, %53
  store i32 %54, ptr %10, align 4
  %55 = load ptr, ptr %15, align 8
  %56 = load i32, ptr %7, align 4
  %57 = mul nsw i32 %56, 0
  %58 = sext i32 %57 to i64
  %59 = getelementptr inbounds i16, ptr %55, i64 %58
  %60 = load i16, ptr %59, align 2
  %61 = load i32, ptr %10, align 4
  %62 = sext i32 %61 to i64
  %63 = load i32, ptr %8, align 4
  %64 = call zeroext i16 @highbd_clip_pixel_add(i16 noundef zeroext %60, i64 noundef %62, i32 noundef %63)
  %65 = load ptr, ptr %15, align 8
  %66 = load i32, ptr %7, align 4
  %67 = mul nsw i32 %66, 0
  %68 = sext i32 %67 to i64
  %69 = getelementptr inbounds i16, ptr %65, i64 %68
  store i16 %64, ptr %69, align 2
  %70 = load ptr, ptr %15, align 8
  %71 = load i32, ptr %7, align 4
  %72 = mul nsw i32 %71, 1
  %73 = sext i32 %72 to i64
  %74 = getelementptr inbounds i16, ptr %70, i64 %73
  %75 = load i16, ptr %74, align 2
  %76 = load i32, ptr %11, align 4
  %77 = sext i32 %76 to i64
  %78 = load i32, ptr %8, align 4
  %79 = call zeroext i16 @highbd_clip_pixel_add(i16 noundef zeroext %75, i64 noundef %77, i32 noundef %78)
  %80 = load ptr, ptr %15, align 8
  %81 = load i32, ptr %7, align 4
  %82 = mul nsw i32 %81, 1
  %83 = sext i32 %82 to i64
  %84 = getelementptr inbounds i16, ptr %80, i64 %83
  store i16 %79, ptr %84, align 2
  %85 = load ptr, ptr %15, align 8
  %86 = load i32, ptr %7, align 4
  %87 = mul nsw i32 %86, 2
  %88 = sext i32 %87 to i64
  %89 = getelementptr inbounds i16, ptr %85, i64 %88
  %90 = load i16, ptr %89, align 2
  %91 = load i32, ptr %11, align 4
  %92 = sext i32 %91 to i64
  %93 = load i32, ptr %8, align 4
  %94 = call zeroext i16 @highbd_clip_pixel_add(i16 noundef zeroext %90, i64 noundef %92, i32 noundef %93)
  %95 = load ptr, ptr %15, align 8
  %96 = load i32, ptr %7, align 4
  %97 = mul nsw i32 %96, 2
  %98 = sext i32 %97 to i64
  %99 = getelementptr inbounds i16, ptr %95, i64 %98
  store i16 %94, ptr %99, align 2
  %100 = load ptr, ptr %15, align 8
  %101 = load i32, ptr %7, align 4
  %102 = mul nsw i32 %101, 3
  %103 = sext i32 %102 to i64
  %104 = getelementptr inbounds i16, ptr %100, i64 %103
  %105 = load i16, ptr %104, align 2
  %106 = load i32, ptr %11, align 4
  %107 = sext i32 %106 to i64
  %108 = load i32, ptr %8, align 4
  %109 = call zeroext i16 @highbd_clip_pixel_add(i16 noundef zeroext %105, i64 noundef %107, i32 noundef %108)
  %110 = load ptr, ptr %15, align 8
  %111 = load i32, ptr %7, align 4
  %112 = mul nsw i32 %111, 3
  %113 = sext i32 %112 to i64
  %114 = getelementptr inbounds i16, ptr %110, i64 %113
  store i16 %109, ptr %114, align 2
  %115 = load ptr, ptr %13, align 8
  %116 = getelementptr inbounds i32, ptr %115, i32 1
  store ptr %116, ptr %13, align 8
  %117 = load ptr, ptr %15, align 8
  %118 = getelementptr inbounds i16, ptr %117, i32 1
  store ptr %118, ptr %15, align 8
  br label %119

119:                                              ; preds = %45
  %120 = load i32, ptr %9, align 4
  %121 = add nsw i32 %120, 1
  store i32 %121, ptr %9, align 4
  br label %42, !llvm.loop !7

122:                                              ; preds = %42
  ret void
}