; Function Attrs: nofree norecurse nosync nounwind memory(readwrite, inaccessiblemem: none) uwtable
define hidden void @av1_highbd_iwht4x4_1_add_c(ptr noundef readonly captures(none) %0, ptr noundef %1, i32 noundef %2, i32 noundef %3) local_unnamed_addr #0 {
  %5 = alloca [4 x i32], align 16
  %6 = ptrtoint ptr %1 to i64
  %7 = shl i64 %6, 1
  %8 = inttoptr i64 %7 to ptr
  %9 = load i32, ptr %0, align 4
  %10 = ashr i32 %9, 2
  %11 = ashr i32 %9, 3
  %12 = sub nsw i32 %10, %11
  store i32 %12, ptr %5, align 16
  %13 = getelementptr inbounds nuw i8, ptr %5, i64 12
  store i32 %11, ptr %13, align 4
  %14 = getelementptr inbounds nuw i8, ptr %5, i64 8
  store i32 %11, ptr %14, align 8
  %15 = getelementptr inbounds nuw i8, ptr %5, i64 4
  store i32 %11, ptr %15, align 4
  %16 = sext i32 %2 to i64
  %17 = shl nsw i32 %2, 1
  %18 = sext i32 %17 to i64
  %19 = mul nsw i32 %2, 3
  %20 = sext i32 %19 to i64
  switch i32 %3, label %highbd_clip_pixel_add.exit [
    i32 12, label %highbd_clip_pixel_add.exit.thread.us
    i32 10, label %highbd_clip_pixel_add.exit.thread55.us
  ]

highbd_clip_pixel_add.exit.thread.us:             ; preds = %4, %highbd_clip_pixel_add.exit.thread.us
  %.072.us = phi ptr [ %52, %highbd_clip_pixel_add.exit.thread.us ], [ %8, %4 ]
  %.04271.us = phi i32 [ %53, %highbd_clip_pixel_add.exit.thread.us ], [ 0, %4 ]
  %.04370.us = phi ptr [ %51, %highbd_clip_pixel_add.exit.thread.us ], [ %5, %4 ]
  %21 = load i32, ptr %.04370.us, align 4
  %22 = ashr i32 %21, 1
  %23 = sub nsw i32 %21, %22
  %24 = load i16, ptr %.072.us, align 2
  %25 = zext i16 %24 to i32
  %26 = add nsw i32 %23, %25
  %27 = tail call i32 @llvm.umin.i32(i32 %26, i32 4095)
  %28 = icmp slt i32 %26, 0
  %29 = trunc nuw nsw i32 %27 to i16
  %.0.i.i54.us = select i1 %28, i16 0, i16 %29
  store i16 %.0.i.i54.us, ptr %.072.us, align 2
  %30 = getelementptr inbounds i16, ptr %.072.us, i64 %16
  %31 = load i16, ptr %30, align 2
  %32 = zext i16 %31 to i32
  %33 = add nsw i32 %22, %32
  %34 = tail call i32 @llvm.umin.i32(i32 %33, i32 4095)
  %35 = icmp slt i32 %33, 0
  %36 = trunc nuw nsw i32 %34 to i16
  %.0.i.i4559.us = select i1 %35, i16 0, i16 %36
  store i16 %.0.i.i4559.us, ptr %30, align 2
  %37 = getelementptr inbounds i16, ptr %.072.us, i64 %18
  %38 = load i16, ptr %37, align 2
  %39 = zext i16 %38 to i32
  %40 = add nsw i32 %22, %39
  %41 = tail call i32 @llvm.umin.i32(i32 %40, i32 4095)
  %42 = icmp slt i32 %40, 0
  %43 = trunc nuw nsw i32 %41 to i16
  %.0.i.i4864.us = select i1 %42, i16 0, i16 %43
  store i16 %.0.i.i4864.us, ptr %37, align 2
  %44 = getelementptr inbounds i16, ptr %.072.us, i64 %20
  %45 = load i16, ptr %44, align 2
  %46 = zext i16 %45 to i32
  %47 = add nsw i32 %22, %46
  %48 = tail call i32 @llvm.umin.i32(i32 %47, i32 4095)
  %49 = icmp slt i32 %47, 0
  %50 = trunc nuw nsw i32 %48 to i16
  %.0.i.i51.us = select i1 %49, i16 0, i16 %50
  store i16 %.0.i.i51.us, ptr %44, align 2
  %51 = getelementptr inbounds nuw i8, ptr %.04370.us, i64 4
  %52 = getelementptr inbounds nuw i8, ptr %.072.us, i64 2
  %53 = add nuw nsw i32 %.04271.us, 1
  %exitcond84.not = icmp eq i32 %53, 4
  br i1 %exitcond84.not, label %.split74.us, label %highbd_clip_pixel_add.exit.thread.us, !llvm.loop !7

highbd_clip_pixel_add.exit.thread55.us:           ; preds = %4, %highbd_clip_pixel_add.exit.thread55.us
  %.072.us76 = phi ptr [ %85, %highbd_clip_pixel_add.exit.thread55.us ], [ %8, %4 ]
  %.04271.us77 = phi i32 [ %86, %highbd_clip_pixel_add.exit.thread55.us ], [ 0, %4 ]
  %.04370.us78 = phi ptr [ %84, %highbd_clip_pixel_add.exit.thread55.us ], [ %5, %4 ]
  %54 = load i32, ptr %.04370.us78, align 4
  %55 = ashr i32 %54, 1
  %56 = sub nsw i32 %54, %55
  %57 = load i16, ptr %.072.us76, align 2
  %58 = zext i16 %57 to i32
  %59 = add nsw i32 %56, %58
  %60 = tail call i32 @llvm.umin.i32(i32 %59, i32 1023)
  %61 = icmp slt i32 %59, 0
  %62 = trunc nuw nsw i32 %60 to i16
  %.0.i.i57.us = select i1 %61, i16 0, i16 %62
  store i16 %.0.i.i57.us, ptr %.072.us76, align 2
  %63 = getelementptr inbounds i16, ptr %.072.us76, i64 %16
  %64 = load i16, ptr %63, align 2
  %65 = zext i16 %64 to i32
  %66 = add nsw i32 %55, %65
  %67 = tail call i32 @llvm.umin.i32(i32 %66, i32 1023)
  %68 = icmp slt i32 %66, 0
  %69 = trunc nuw nsw i32 %67 to i16
  %.0.i.i4562.us = select i1 %68, i16 0, i16 %69
  store i16 %.0.i.i4562.us, ptr %63, align 2
  %70 = getelementptr inbounds i16, ptr %.072.us76, i64 %18
  %71 = load i16, ptr %70, align 2
  %72 = zext i16 %71 to i32
  %73 = add nsw i32 %55, %72
  %74 = tail call i32 @llvm.umin.i32(i32 %73, i32 1023)
  %75 = icmp slt i32 %73, 0
  %76 = trunc nuw nsw i32 %74 to i16
  %.0.i.i4867.us = select i1 %75, i16 0, i16 %76
  store i16 %.0.i.i4867.us, ptr %70, align 2
  %77 = getelementptr inbounds i16, ptr %.072.us76, i64 %20
  %78 = load i16, ptr %77, align 2
  %79 = zext i16 %78 to i32
  %80 = add nsw i32 %55, %79
  %81 = tail call i32 @llvm.umin.i32(i32 %80, i32 1023)
  %82 = icmp slt i32 %80, 0
  %83 = trunc nuw nsw i32 %81 to i16
  %.0.i.i51.us81 = select i1 %82, i16 0, i16 %83
  store i16 %.0.i.i51.us81, ptr %77, align 2
  %84 = getelementptr inbounds nuw i8, ptr %.04370.us78, i64 4
  %85 = getelementptr inbounds nuw i8, ptr %.072.us76, i64 2
  %86 = add nuw nsw i32 %.04271.us77, 1
  %exitcond.not = icmp eq i32 %86, 4
  br i1 %exitcond.not, label %.split74.us, label %highbd_clip_pixel_add.exit.thread55.us, !llvm.loop !7

highbd_clip_pixel_add.exit:                       ; preds = %4, %highbd_clip_pixel_add.exit
  %.072 = phi ptr [ %118, %highbd_clip_pixel_add.exit ], [ %8, %4 ]
  %.04271 = phi i32 [ %119, %highbd_clip_pixel_add.exit ], [ 0, %4 ]
  %.04370 = phi ptr [ %117, %highbd_clip_pixel_add.exit ], [ %5, %4 ]
  %87 = load i32, ptr %.04370, align 4
  %88 = ashr i32 %87, 1
  %89 = sub nsw i32 %87, %88
  %90 = load i16, ptr %.072, align 2
  %91 = zext i16 %90 to i32
  %92 = add nsw i32 %89, %91
  %93 = tail call i32 @llvm.umin.i32(i32 %92, i32 255)
  %94 = icmp slt i32 %92, 0
  %95 = trunc nuw nsw i32 %93 to i16
  %.0.i.i = select i1 %94, i16 0, i16 %95
  store i16 %.0.i.i, ptr %.072, align 2
  %96 = getelementptr inbounds i16, ptr %.072, i64 %16
  %97 = load i16, ptr %96, align 2
  %98 = zext i16 %97 to i32
  %99 = add nsw i32 %88, %98
  %100 = tail call i32 @llvm.umin.i32(i32 %99, i32 255)
  %101 = icmp slt i32 %99, 0
  %102 = trunc nuw nsw i32 %100 to i16
  %.0.i.i45 = select i1 %101, i16 0, i16 %102
  store i16 %.0.i.i45, ptr %96, align 2
  %103 = getelementptr inbounds i16, ptr %.072, i64 %18
  %104 = load i16, ptr %103, align 2
  %105 = zext i16 %104 to i32
  %106 = add nsw i32 %88, %105
  %107 = tail call i32 @llvm.umin.i32(i32 %106, i32 255)
  %108 = icmp slt i32 %106, 0
  %109 = trunc nuw nsw i32 %107 to i16
  %.0.i.i48 = select i1 %108, i16 0, i16 %109
  store i16 %.0.i.i48, ptr %103, align 2
  %110 = getelementptr inbounds i16, ptr %.072, i64 %20
  %111 = load i16, ptr %110, align 2
  %112 = zext i16 %111 to i32
  %113 = add nsw i32 %88, %112
  %114 = tail call i32 @llvm.umin.i32(i32 %113, i32 255)
  %115 = icmp slt i32 %113, 0
  %116 = trunc nuw nsw i32 %114 to i16
  %.0.i.i51 = select i1 %115, i16 0, i16 %116
  store i16 %.0.i.i51, ptr %110, align 2
  %117 = getelementptr inbounds nuw i8, ptr %.04370, i64 4
  %118 = getelementptr inbounds nuw i8, ptr %.072, i64 2
  %119 = add nuw nsw i32 %.04271, 1
  %exitcond85.not = icmp eq i32 %119, 4
  br i1 %exitcond85.not, label %.split74.us, label %highbd_clip_pixel_add.exit, !llvm.loop !7

.split74.us:                                      ; preds = %highbd_clip_pixel_add.exit.thread55.us, %highbd_clip_pixel_add.exit.thread.us, %highbd_clip_pixel_add.exit
  ret void
}